; Function Attrs: mustprogress nounwind uwtable
define dso_local void @_ZN5clang4ento5taint11removeTaintEN4llvm18IntrusiveRefCntPtrIKNS0_12ProgramStateEEENS0_4SValE(ptr dead_on_unwind noalias writable sret(%"class.llvm::IntrusiveRefCntPtr") align 8 %0, ptr nocapture noundef readonly %1, ptr %2, i8 %3) local_unnamed_addr #0 {
  %5 = alloca %"class.llvm::IntrusiveRefCntPtr", align 8
  %6 = alloca %"class.clang::ento::SVal", align 8
  %7 = alloca %"class.llvm::IntrusiveRefCntPtr", align 8
  store ptr %2, ptr %6, align 8
  %8 = getelementptr inbounds nuw i8, ptr %6, i64 8
  store i8 %3, ptr %8, align 8
  %9 = call noundef ptr @_ZNK5clang4ento4SVal11getAsSymbolEb(ptr noundef nonnull align 8 dereferenceable(9) %6, i1 noundef zeroext false) #14
  %.not = icmp eq ptr %9, null
  br i1 %.not, label %13, label %10

10:                                               ; preds = %4
  %11 = load ptr, ptr %1, align 8
  store ptr %11, ptr %7, align 8
  %.not.i.i = icmp eq ptr %11, null
  br i1 %.not.i.i, label %_ZN4llvm18IntrusiveRefCntPtrIKN5clang4ento12ProgramStateEEC2ERKS5_.exit.thread, label %12

_ZN4llvm18IntrusiveRefCntPtrIKN5clang4ento12ProgramStateEEC2ERKS5_.exit.thread: ; preds = %10
  call void @_ZN5clang4ento5taint11removeTaintEN4llvm18IntrusiveRefCntPtrIKNS0_12ProgramStateEEEPKNS0_7SymExprE(ptr dead_on_unwind writable sret(%"class.llvm::IntrusiveRefCntPtr") align 8 %0, ptr noundef nonnull %7, ptr noundef nonnull %9)
  br label %_ZN4llvm18IntrusiveRefCntPtrIKN5clang4ento12ProgramStateEED2Ev.exit

12:                                               ; preds = %10
  call void @_ZN5clang4ento18ProgramStateRetainEPKNS0_12ProgramStateE(ptr noundef nonnull %11) #14
  call void @_ZN5clang4ento5taint11removeTaintEN4llvm18IntrusiveRefCntPtrIKNS0_12ProgramStateEEEPKNS0_7SymExprE(ptr dead_on_unwind writable sret(%"class.llvm::IntrusiveRefCntPtr") align 8 %0, ptr noundef nonnull %7, ptr noundef nonnull %9)
  call void @_ZN5clang4ento19ProgramStateReleaseEPKNS0_12ProgramStateE(ptr noundef nonnull %11) #14
  br label %_ZN4llvm18IntrusiveRefCntPtrIKN5clang4ento12ProgramStateEED2Ev.exit

13:                                               ; preds = %4
  %14 = call noundef ptr @_ZNK5clang4ento4SVal11getAsRegionEv(ptr noundef nonnull align 8 dereferenceable(9) %6) #14
  %15 = load ptr, ptr %1, align 8
  %.not.i.i4 = icmp eq ptr %15, null
  br i1 %.not.i.i4, label %_ZN4llvm18IntrusiveRefCntPtrIKN5clang4ento12ProgramStateEEC2ERKS5_.exit5, label %16

16:                                               ; preds = %13
  call void @_ZN5clang4ento18ProgramStateRetainEPKNS0_12ProgramStateE(ptr noundef nonnull %15) #14
  br label %_ZN4llvm18IntrusiveRefCntPtrIKN5clang4ento12ProgramStateEEC2ERKS5_.exit5

_ZN4llvm18IntrusiveRefCntPtrIKN5clang4ento12ProgramStateEEC2ERKS5_.exit5: ; preds = %13, %16
  call void @llvm.experimental.noalias.scope.decl(metadata !74)
  call void @llvm.lifetime.start.p0(i64 8, ptr nonnull %5)
  %.not.i.i.i = icmp eq ptr %14, null
  br i1 %.not.i.i.i, label %23, label %17

17:                                               ; preds = %_ZN4llvm18IntrusiveRefCntPtrIKN5clang4ento12ProgramStateEEC2ERKS5_.exit5
  %18 = getelementptr inbounds nuw i8, ptr %14, i64 16
  %19 = load i32, ptr %18, align 8, !noalias !74
  %20 = icmp eq i32 %19, 10
  br i1 %20, label %_ZN4llvm16dyn_cast_or_nullIN5clang4ento14SymbolicRegionEKNS2_9MemRegionEEEDaPT0_.exit.i, label %23

_ZN4llvm16dyn_cast_or_nullIN5clang4ento14SymbolicRegionEKNS2_9MemRegionEEEDaPT0_.exit.i: ; preds = %17
  store ptr %15, ptr %5, align 8, !noalias !74
  br i1 %.not.i.i4, label %_ZN4llvm18IntrusiveRefCntPtrIKN5clang4ento12ProgramStateEEC2ERKS5_.exit.thread.i, label %24

_ZN4llvm18IntrusiveRefCntPtrIKN5clang4ento12ProgramStateEEC2ERKS5_.exit.thread.i: ; preds = %_ZN4llvm16dyn_cast_or_nullIN5clang4ento14SymbolicRegionEKNS2_9MemRegionEEEDaPT0_.exit.i
  %21 = getelementptr inbounds nuw i8, ptr %14, i64 56
  %22 = load ptr, ptr %21, align 8, !noalias !74
  call void @_ZN5clang4ento5taint11removeTaintEN4llvm18IntrusiveRefCntPtrIKNS0_12ProgramStateEEEPKNS0_7SymExprE(ptr dead_on_unwind writable sret(%"class.llvm::IntrusiveRefCntPtr") align 8 %0, ptr noundef nonnull %5, ptr noundef %22)
  br label %_ZN5clang4ento5taint11removeTaintEN4llvm18IntrusiveRefCntPtrIKNS0_12ProgramStateEEEPKNS0_9MemRegionE.exit.thread

23:                                               ; preds = %17, %_ZN4llvm18IntrusiveRefCntPtrIKN5clang4ento12ProgramStateEEC2ERKS5_.exit5
  store ptr %15, ptr %0, align 8, !alias.scope !74
  br label %_ZN5clang4ento5taint11removeTaintEN4llvm18IntrusiveRefCntPtrIKNS0_12ProgramStateEEEPKNS0_9MemRegionE.exit.thread

_ZN5clang4ento5taint11removeTaintEN4llvm18IntrusiveRefCntPtrIKNS0_12ProgramStateEEEPKNS0_9MemRegionE.exit.thread: ; preds = %23, %_ZN4llvm18IntrusiveRefCntPtrIKN5clang4ento12ProgramStateEEC2ERKS5_.exit.thread.i
  call void @llvm.lifetime.end.p0(i64 8, ptr nonnull %5)
  br label %_ZN4llvm18IntrusiveRefCntPtrIKN5clang4ento12ProgramStateEED2Ev.exit

24:                                               ; preds = %_ZN4llvm16dyn_cast_or_nullIN5clang4ento14SymbolicRegionEKNS2_9MemRegionEEEDaPT0_.exit.i
  call void @_ZN5clang4ento18ProgramStateRetainEPKNS0_12ProgramStateE(ptr noundef nonnull %15) #14, !noalias !74
  %25 = getelementptr inbounds nuw i8, ptr %14, i64 56
  %26 = load ptr, ptr %25, align 8, !noalias !74
  call void @_ZN5clang4ento5taint11removeTaintEN4llvm18IntrusiveRefCntPtrIKNS0_12ProgramStateEEEPKNS0_7SymExprE(ptr dead_on_unwind writable sret(%"class.llvm::IntrusiveRefCntPtr") align 8 %0, ptr noundef nonnull %5, ptr noundef %26)
  call void @_ZN5clang4ento19ProgramStateReleaseEPKNS0_12ProgramStateE(ptr noundef nonnull %15) #14
  call void @llvm.lifetime.end.p0(i64 8, ptr nonnull %5)
  call void @_ZN5clang4ento19ProgramStateReleaseEPKNS0_12ProgramStateE(ptr noundef nonnull %15) #14
  br label %_ZN4llvm18IntrusiveRefCntPtrIKN5clang4ento12ProgramStateEED2Ev.exit

_ZN4llvm18IntrusiveRefCntPtrIKN5clang4ento12ProgramStateEED2Ev.exit: ; preds = %24, %_ZN5clang4ento5taint11removeTaintEN4llvm18IntrusiveRefCntPtrIKNS0_12ProgramStateEEEPKNS0_9MemRegionE.exit.thread, %12, %_ZN4llvm18IntrusiveRefCntPtrIKN5clang4ento12ProgramStateEEC2ERKS5_.exit.thread
  ret void
}